(dp1
S'output'
p2
S"<type 'exceptions.TypeError'> __init__() got an unexpected keyword argument 'represent'"
p3
sS'layer'
p4
S'C:\\Users\\otakai\\Desktop\\web2py\\applications\\eadtools\\controllers/default.py'
p5
sS'code'
p6
S'# -*- coding: utf-8 -*-\n# this file is released under public domain and you can use without limitations\n\n# -------------------------------------------------------------------------\n# This is a sample controller\n# - index is the default action of any application\n# - user is required for authentication and authorization\n# - download is for downloading files uploaded in the db (does streaming)\n# -------------------------------------------------------------------------\n\n\ndef index():\n    """\n    example action using the internationalization operator T and flash\n    rendered by views/default/index.html or views/generic.html\n\n    if you need a simple wiki simply replace the two lines below with:\n    return auth.wiki()\n    """\n    response.flash = T("Hello World")\n    return dict(message=T(\'Welcome to web2py!\'))\n\n\ndef user():\n    """\n    exposes:\n    http://..../[app]/default/user/login\n    http://..../[app]/default/user/logout\n    http://..../[app]/default/user/register\n    http://..../[app]/default/user/profile\n    http://..../[app]/default/user/retrieve_password\n    http://..../[app]/default/user/change_password\n    http://..../[app]/default/user/bulk_register\n    use @auth.requires_login()\n        @auth.requires_membership(\'group name\')\n        @auth.requires_permission(\'read\',\'table name\',record_id)\n    to decorate functions that need access control\n    also notice there is http://..../[app]/appadmin/manage/auth to allow administrator to manage users\n    """\n    return dict(form=auth())\n\n\n@cache.action()\ndef download():\n    """\n    allows downloading of uploaded files\n    http://..../[app]/default/download/[filename]\n    """\n    return response.download(request, db)\n\n\ndef call():\n    """\n    exposes services. for example:\n    http://..../[app]/default/call/jsonrpc\n    decorate with @services.jsonrpc the functions to expose\n    supports xml, json, xmlrpc, jsonrpc, amfrpc, rss, csv\n    """\n    return service()\n\n\ndef is_professor():\n    return db ((db.auth_membership.user_id == auth.user.id) \n        & (db.auth_membership.group_id == db.auth_group.id)).select(db.auth_group.role).first().role == \'Professor\'\n\n@auth.requires_login()\ndef nova_disciplina():\n    form = None\n    if is_professor():\n        form = SQLFORM(Disciplina)\n        if form.process().accepted:\n            session.flash = \'Formul\xc3\xa1rio aceito!\'\n        elif form.errors:\n            response.flash = \'Erros no formul\xc3\xa1rio!\'\n        else:\n            response.flash = \'Preencha o formul\xc3\xa1rio!\'\n    else:\n        sem_permissao = \'Voc\xc3\xaa n\xc3\xa3o tem permiss\xc3\xa3o para criar uma disciplina!\'\n        response.flash = sem_permissao\n    return dict(form=form)\n\n@auth.requires_login()\ndef novo_planodeentrega():\n    form = None\n    if is_professor():\n        filtro = db(auth.user.id == Disciplina.created_by)\n        PlanoDeEntrega.disciplina.requires = IS_IN_DB(filtro, \'disciplina.id\', \'%(nome)s\')\n        form = SQLFORM(PlanoDeEntrega)\n        if form.process().accepted:\n            session.flash = \'Formul\xc3\xa1rio aceito!\'\n        elif form.errors:\n            response.flash = \'Erros no formul\xc3\xa1rio!\'\n        else:\n            response.flash = \'Preencha o formul\xc3\xa1rio!\'\n    else:\n        sem_permissao = \'Voc\xc3\xaa n\xc3\xa3o tem permiss\xc3\xa3o para criar uma disciplina!\'\n        response.flash = sem_permissao\n    return dict(form=form)\n\n\n@auth.requires_login()\ndef nova_entrega():\n    form = None\n    if is_professor():\n        filtro = db((auth.user.id == Disciplina.created_by) &\n                 (Disciplina.id == PlanoDeEntrega.disciplina))\n        Entrega.planodeentrega.requires = IS_IN_DB(filtro, \'planodeentrega.id\', \n            represent = lambda id,row: db((PlanoDeEntrega.id == row.planodeentrega) & \n                (PlanoDeEntrega.disciplina == Disciplina.id)).select().first().nome)\n        form = SQLFORM(Entrega)\n        if form.process().accepted:\n            session.flash = \'Formul\xc3\xa1rio aceito!\'\n        elif form.errors:\n            response.flash = \'Erros no formul\xc3\xa1rio!\'\n        else:\n            response.flash = \'Preencha o formul\xc3\xa1rio!\'\n    else:\n        sem_permissao = \'Voc\xc3\xaa n\xc3\xa3o tem permiss\xc3\xa3o para criar uma disciplina!\'\n        response.flash = sem_permissao\n    return dict(form=form)\n\n\n@auth.requires_login()\ndef planosdeentrega():\n    session.config or dict(color = \'blck\', language=\'Portuguese\')\n    nome_disciplina = db(Disciplina.id == request.args(0)).select().first().nome\n    grid = SQLFORM.grid(PlanoDeEntrega.disciplina_id == request.args(0),\n        fields = [PlanoDeEntrega.id, PlanoDeEntrega.tipo, PlanoDeEntrega.descricao, PlanoDeEntrega.datainicial, PlanoDeEntrega.datafinal],\n        user_signature=False, csv = False, details = False, maxtextlength = 40, deletable = False, editable = False, create=False)\n    return dict(nome_disciplina = nome_disciplina, grid = grid)\n\n@auth.requires_login()\ndef disciplinas():\n    session.config or dict(color = \'blck\', language=\'Portuguese\')\n    grid = SQLFORM.grid(db(Disciplina.created_by == Usuario.id), \n        fields = [Disciplina.id, Usuario.first_name, Disciplina.nome],\n        links = [lambda row: A(\'Entregas\' , _href = URL(\'planosdeentrega\', args = [row.disciplina.id]))],\n        csv = False, details = False, maxtextlength = 40, deletable = False, editable = False, create=False)\n    return dict(grid=grid)\n\nresponse._vars=response._caller(nova_entrega)\n'
p7
sS'snapshot'
p8
(dp9
sS'traceback'
p10
S'Traceback (most recent call last):\n  File "C:\\Users\\otakai\\Desktop\\web2py\\gluon\\restricted.py", line 227, in restricted\n    exec ccode in environment\n  File "C:\\Users\\otakai\\Desktop\\web2py\\applications\\eadtools\\controllers/default.py", line 141, in <module>\n  File "C:\\Users\\otakai\\Desktop\\web2py\\gluon\\globals.py", line 417, in <lambda>\n    self._caller = lambda f: f()\n  File "C:\\Users\\otakai\\Desktop\\web2py\\gluon\\tools.py", line 4241, in f\n    return action(*a, **b)\n  File "C:\\Users\\otakai\\Desktop\\web2py\\applications\\eadtools\\controllers/default.py", line 108, in nova_entrega\n    represent = lambda id,row: db((PlanoDeEntrega.id == row.planodeentrega) &\nTypeError: __init__() got an unexpected keyword argument \'represent\'\n'
p11
s.